target datalayout = "e-m:e-p270:32:32-p271:32:32-p272:64:64-i64:64-i128:128-f80:128-n8:16:32:64-S128"
target triple = "x86_64-unknown-linux-gnu"

%"class.smt::eq_justification" = type { ptr }
%"class.(anonymous namespace)::mam_impl" = type { %"class.smt::mam", ptr, i8, %class.trail_stack, %"class.(anonymous namespace)::label_hasher", %"class.(anonymous namespace)::code_tree_manager", %"class.(anonymous namespace)::compiler", %"class.(anonymous namespace)::interpreter", %"class.(anonymous namespace)::code_tree_map", %class.ptr_vector.20, %class.ptr_vector.22, %class.ptr_vector.20, %class.svector.24, %class.svector.7, %class.svector.7, %class.vector.26, ptr, %class.region, [64 x [64 x %"struct.std::pair"]], [64 x [64 x ptr]], %class.pool, %class.vector.27, %class.ptr_vector.28, %class.obj_hashtable, ptr, ptr }
%"class.smt::mam" = type { ptr, ptr }
%class.trail_stack = type { %class.ptr_vector, %class.svector, %class.region }
%class.ptr_vector = type { %class.vector }
%class.vector = type { ptr }
%class.svector = type { %class.vector.0 }
%class.vector.0 = type { ptr }
%"class.(anonymous namespace)::label_hasher" = type { %class.svector.1 }
%class.svector.1 = type { %class.vector.2 }
%class.vector.2 = type { ptr }
%"class.(anonymous namespace)::code_tree_manager" = type { ptr, ptr, ptr }
%"class.(anonymous namespace)::compiler" = type { ptr, ptr, ptr, ptr, i8, %class.ptr_vector.3, %class.svector, %class.svector, %class.svector.5, ptr, ptr, ptr, i32, i8, %class.svector.7, %class.obj_map, %class.svector.9, %class.svector, %class.ptr_vector.11, %class.ptr_vector.11, %class.ptr_vector.11 }
%class.ptr_vector.3 = type { %class.vector.4 }
%class.vector.4 = type { ptr }
%class.svector.5 = type { %class.vector.6 }
%class.vector.6 = type { ptr }
%class.obj_map = type { %class.core_hashtable }
%class.core_hashtable = type <{ ptr, i32, i32, i32, [4 x i8] }>
%class.svector.9 = type { %class.vector.10 }
%class.vector.10 = type { ptr }
%class.ptr_vector.11 = type { %class.vector.12 }
%class.vector.12 = type { ptr }
%"class.(anonymous namespace)::interpreter" = type { ptr, ptr, ptr, i8, %class.ptr_vector.13, %class.ptr_vector.13, %class.ptr_vector.13, %class.svector.15, i32, ptr, i32, i32, i32, i32, ptr, ptr, ptr, ptr, %class.vector.17, i32, %class.ptr_vector.13, %class.svector, %class.svector, %class.pool }
%class.svector.15 = type { %class.vector.16 }
%class.vector.16 = type { ptr }
%class.vector.17 = type { ptr }
%class.ptr_vector.13 = type { %class.vector.14 }
%class.vector.14 = type { ptr }
%"class.(anonymous namespace)::code_tree_map" = type { ptr, ptr, %class.ptr_vector.20, ptr }
%class.ptr_vector.22 = type { %class.vector.23 }
%class.vector.23 = type { ptr }
%class.ptr_vector.20 = type { %class.vector.21 }
%class.vector.21 = type { ptr }
%class.svector.24 = type { %class.vector.25 }
%class.vector.25 = type { ptr }
%class.svector.7 = type { %class.vector.8 }
%class.vector.8 = type { ptr }
%class.vector.26 = type { ptr }
%class.region = type { ptr, ptr, ptr, ptr, ptr }
%"struct.std::pair" = type { ptr, ptr }
%class.pool = type { %class.ptr_vector.18 }
%class.ptr_vector.18 = type { %class.vector.19 }
%class.vector.19 = type { ptr }
%class.vector.27 = type { ptr }
%class.ptr_vector.28 = type { %class.vector.29 }
%class.vector.29 = type { ptr }
%class.obj_hashtable = type { %class.core_hashtable.base.31, [4 x i8] }
%class.core_hashtable.base.31 = type <{ ptr, i32, i32, i32 }>
%class.approx_set = type { %class.approx_set_tpl }
%class.approx_set_tpl = type { i64 }
%class.core_hashtable.30 = type <{ ptr, i32, i32, i32, [4 x i8] }>
%class.obj_hash_entry = type { ptr }
%class.ast = type { i32, i24, i32, i32 }
%"class.smt::enode" = type { ptr, ptr, ptr, ptr, i32, i32, i32, i16, i32, i8, i8, %class.ptr_vector.13, %class.id_var_list, %"struct.smt::trans_justification", %class.approx_set, %class.approx_set, [0 x ptr] }
%class.id_var_list = type { i32, ptr }
%"struct.smt::trans_justification" = type { ptr, %"class.smt::eq_justification" }

; Function Attrs: mustprogress nounwind uwtable
define linkonce_odr hidden noundef i32 @_ZNK3ast4hashEv(ptr noundef nonnull align 4 dereferenceable(16) %this) #4 comdat align 2 {
entry:
  %this.addr = alloca ptr, align 8
  store ptr %this, ptr %this.addr, align 8
  %this1 = load ptr, ptr %this.addr, align 8
  %m_hash = getelementptr inbounds %class.ast, ptr %this1, i32 0, i32 3
  %0 = load i32, ptr %m_hash, align 4
  ret i32 %0
}

; Function Attrs: mustprogress nounwind uwtable
define linkonce_odr hidden noundef zeroext i1 @_ZNK6ptr_eqIN3smt5enodeEEclEPS1_S3_(ptr noundef nonnull align 1 dereferenceable(1) %this, ptr noundef %a1, ptr noundef %a2) #4 comdat align 2 {
entry:
  %this.addr = alloca ptr, align 8
  %a1.addr = alloca ptr, align 8
  %a2.addr = alloca ptr, align 8
  store ptr %this, ptr %this.addr, align 8
  store ptr %a1, ptr %a1.addr, align 8
  store ptr %a2, ptr %a2.addr, align 8
  %0 = load ptr, ptr %a1.addr, align 8
  %1 = load ptr, ptr %a2.addr, align 8
  %cmp = icmp eq ptr %0, %1
  ret i1 %cmp
}

; Function Attrs: mustprogress nounwind uwtable
define linkonce_odr hidden noundef i32 @_ZNK3smt5enode4hashEv(ptr noundef nonnull align 8 dereferenceable(112) %this) #4 comdat align 2 {
entry:
  %this.addr = alloca ptr, align 8
  store ptr %this, ptr %this.addr, align 8
  %this1 = load ptr, ptr %this.addr, align 8
  %m_owner = getelementptr inbounds %"class.smt::enode", ptr %this1, i32 0, i32 0
  %0 = load ptr, ptr %m_owner, align 8
  %call = call noundef i32 @_ZNK3ast4hashEv(ptr noundef nonnull align 4 dereferenceable(16) %0)
  ret i32 %call
}

; Function Attrs: mustprogress uwtable
define linkonce_odr hidden noundef i32 @_ZNK12obj_ptr_hashIN3smt5enodeEEclEPS1_(ptr noundef nonnull align 1 dereferenceable(1) %this, ptr noundef %a) #5 comdat align 2 {
entry:
  %this.addr = alloca ptr, align 8
  %a.addr = alloca ptr, align 8
  store ptr %this, ptr %this.addr, align 8
  store ptr %a, ptr %a.addr, align 8
  %0 = load ptr, ptr %a.addr, align 8
  %call = call noundef i32 @_ZNK3smt5enode4hashEv(ptr noundef nonnull align 8 dereferenceable(112) %0)
  ret i32 %call
}

; Function Attrs: mustprogress nounwind uwtable
define linkonce_odr hidden noundef zeroext i1 @_ZNK14obj_hash_entryIN3smt5enodeEE7is_freeEv(ptr noundef nonnull align 8 dereferenceable(8) %this) #4 comdat align 2 {
entry:
  %this.addr = alloca ptr, align 8
  store ptr %this, ptr %this.addr, align 8
  %this1 = load ptr, ptr %this.addr, align 8
  %m_ptr = getelementptr inbounds %class.obj_hash_entry, ptr %this1, i32 0, i32 0
  %0 = load ptr, ptr %m_ptr, align 8
  %cmp = icmp eq ptr %0, null
  ret i1 %cmp
}

; Function Attrs: mustprogress uwtable
define linkonce_odr hidden noundef zeroext i1 @_ZNK14core_hashtableI14obj_hash_entryIN3smt5enodeEE12obj_ptr_hashIS2_E6ptr_eqIS2_EE6equalsERKPS2_SB_(ptr noundef nonnull align 8 dereferenceable(20) %this, ptr noundef nonnull align 8 dereferenceable(8) %e1, ptr noundef nonnull align 8 dereferenceable(8) %e2) #5 comdat align 2 {
entry:
  %this.addr = alloca ptr, align 8
  %e1.addr = alloca ptr, align 8
  %e2.addr = alloca ptr, align 8
  store ptr %this, ptr %this.addr, align 8
  store ptr %e1, ptr %e1.addr, align 8
  store ptr %e2, ptr %e2.addr, align 8
  %this1 = load ptr, ptr %this.addr, align 8
  %0 = load ptr, ptr %e1.addr, align 8
  %1 = load ptr, ptr %0, align 8
  %2 = load ptr, ptr %e2.addr, align 8
  %3 = load ptr, ptr %2, align 8
  %call = call noundef zeroext i1 @_ZNK6ptr_eqIN3smt5enodeEEclEPS1_S3_(ptr noundef nonnull align 1 dereferenceable(1) %this1, ptr noundef %1, ptr noundef %3)
  ret i1 %call
}

; Function Attrs: mustprogress nounwind uwtable
define linkonce_odr hidden noundef nonnull align 8 dereferenceable(8) ptr @_ZN14obj_hash_entryIN3smt5enodeEE8get_dataEv(ptr noundef nonnull align 8 dereferenceable(8) %this) #4 comdat align 2 {
entry:
  %this.addr = alloca ptr, align 8
  store ptr %this, ptr %this.addr, align 8
  %this1 = load ptr, ptr %this.addr, align 8
  %m_ptr = getelementptr inbounds %class.obj_hash_entry, ptr %this1, i32 0, i32 0
  ret ptr %m_ptr
}

; Function Attrs: mustprogress nounwind uwtable
define linkonce_odr hidden noundef i32 @_ZNK14obj_hash_entryIN3smt5enodeEE8get_hashEv(ptr noundef nonnull align 8 dereferenceable(8) %this) #4 comdat align 2 {
entry:
  %this.addr = alloca ptr, align 8
  store ptr %this, ptr %this.addr, align 8
  %this1 = load ptr, ptr %this.addr, align 8
  %m_ptr = getelementptr inbounds %class.obj_hash_entry, ptr %this1, i32 0, i32 0
  %0 = load ptr, ptr %m_ptr, align 8
  %call = call noundef i32 @_ZNK3smt5enode4hashEv(ptr noundef nonnull align 8 dereferenceable(112) %0)
  ret i32 %call
}

; Function Attrs: mustprogress nounwind uwtable
define linkonce_odr hidden noundef zeroext i1 @_ZNK14obj_hash_entryIN3smt5enodeEE7is_usedEv(ptr noundef nonnull align 8 dereferenceable(8) %this) #4 comdat align 2 {
entry:
  %this.addr = alloca ptr, align 8
  store ptr %this, ptr %this.addr, align 8
  %this1 = load ptr, ptr %this.addr, align 8
  %m_ptr = getelementptr inbounds %class.obj_hash_entry, ptr %this1, i32 0, i32 0
  %0 = load ptr, ptr %m_ptr, align 8
  %cmp = icmp ne ptr %0, null
  br i1 %cmp, label %land.rhs, label %land.end

land.rhs:                                         ; preds = %entry
  %m_ptr2 = getelementptr inbounds %class.obj_hash_entry, ptr %this1, i32 0, i32 0
  %1 = load ptr, ptr %m_ptr2, align 8
  %cmp3 = icmp ne ptr %1, inttoptr (i64 1 to ptr)
  br label %land.end

land.end:                                         ; preds = %land.rhs, %entry
  %2 = phi i1 [ false, %entry ], [ %cmp3, %land.rhs ]
  ret i1 %2
}

; Function Attrs: mustprogress uwtable
define linkonce_odr hidden noundef i32 @_ZNK14core_hashtableI14obj_hash_entryIN3smt5enodeEE12obj_ptr_hashIS2_E6ptr_eqIS2_EE8get_hashERKPS2_(ptr noundef nonnull align 8 dereferenceable(20) %this, ptr noundef nonnull align 8 dereferenceable(8) %e) #5 comdat align 2 {
entry:
  %this.addr = alloca ptr, align 8
  %e.addr = alloca ptr, align 8
  store ptr %this, ptr %this.addr, align 8
  store ptr %e, ptr %e.addr, align 8
  %this1 = load ptr, ptr %this.addr, align 8
  %0 = load ptr, ptr %e.addr, align 8
  %1 = load ptr, ptr %0, align 8
  %call = call noundef i32 @_ZNK12obj_ptr_hashIN3smt5enodeEEclEPS1_(ptr noundef nonnull align 1 dereferenceable(1) %this1, ptr noundef %1)
  ret i32 %call
}

; Function Attrs: mustprogress uwtable
define linkonce_odr hidden noundef ptr @_ZNK14core_hashtableI14obj_hash_entryIN3smt5enodeEE12obj_ptr_hashIS2_E6ptr_eqIS2_EE9find_coreERKPS2_(ptr noundef nonnull align 8 dereferenceable(20) %this, ptr noundef nonnull align 8 dereferenceable(8) %e) #5 comdat align 2 {
entry:
  %retval = alloca ptr, align 8
  %this.addr = alloca ptr, align 8
  %e.addr = alloca ptr, align 8
  %hash = alloca i32, align 4
  %mask = alloca i32, align 4
  %idx = alloca i32, align 4
  %begin = alloca ptr, align 8
  %end = alloca ptr, align 8
  %curr = alloca ptr, align 8
  store ptr %this, ptr %this.addr, align 8
  store ptr %e, ptr %e.addr, align 8
  %this1 = load ptr, ptr %this.addr, align 8
  %0 = load ptr, ptr %e.addr, align 8
  %call = call noundef i32 @_ZNK14core_hashtableI14obj_hash_entryIN3smt5enodeEE12obj_ptr_hashIS2_E6ptr_eqIS2_EE8get_hashERKPS2_(ptr noundef nonnull align 8 dereferenceable(20) %this1, ptr noundef nonnull align 8 dereferenceable(8) %0)
  store i32 %call, ptr %hash, align 4
  %m_capacity = getelementptr inbounds %class.core_hashtable.30, ptr %this1, i32 0, i32 1
  %1 = load i32, ptr %m_capacity, align 8
  %sub = sub i32 %1, 1
  store i32 %sub, ptr %mask, align 4
  %2 = load i32, ptr %hash, align 4
  %3 = load i32, ptr %mask, align 4
  %and = and i32 %2, %3
  store i32 %and, ptr %idx, align 4
  %m_table = getelementptr inbounds %class.core_hashtable.30, ptr %this1, i32 0, i32 0
  %4 = load ptr, ptr %m_table, align 8
  %5 = load i32, ptr %idx, align 4
  %idx.ext = zext i32 %5 to i64
  %add.ptr = getelementptr inbounds %class.obj_hash_entry, ptr %4, i64 %idx.ext
  store ptr %add.ptr, ptr %begin, align 8
  %m_table2 = getelementptr inbounds %class.core_hashtable.30, ptr %this1, i32 0, i32 0
  %6 = load ptr, ptr %m_table2, align 8
  %m_capacity3 = getelementptr inbounds %class.core_hashtable.30, ptr %this1, i32 0, i32 1
  %7 = load i32, ptr %m_capacity3, align 8
  %idx.ext4 = zext i32 %7 to i64
  %add.ptr5 = getelementptr inbounds %class.obj_hash_entry, ptr %6, i64 %idx.ext4
  store ptr %add.ptr5, ptr %end, align 8
  %8 = load ptr, ptr %begin, align 8
  store ptr %8, ptr %curr, align 8
  br label %for.cond

for.cond:                                         ; preds = %for.inc, %entry
  %9 = load ptr, ptr %curr, align 8
  %10 = load ptr, ptr %end, align 8
  %cmp = icmp ne ptr %9, %10
  br i1 %cmp, label %for.body, label %for.end

for.body:                                         ; preds = %for.cond
  %11 = load ptr, ptr %curr, align 8
  %call6 = call noundef zeroext i1 @_ZNK14obj_hash_entryIN3smt5enodeEE7is_usedEv(ptr noundef nonnull align 8 dereferenceable(8) %11)
  br i1 %call6, label %if.then, label %if.else

if.then:                                          ; preds = %for.body
  %12 = load ptr, ptr %curr, align 8
  %call7 = call noundef i32 @_ZNK14obj_hash_entryIN3smt5enodeEE8get_hashEv(ptr noundef nonnull align 8 dereferenceable(8) %12)
  %13 = load i32, ptr %hash, align 4
  %cmp8 = icmp eq i32 %call7, %13
  br i1 %cmp8, label %land.lhs.true, label %if.end

land.lhs.true:                                    ; preds = %if.then
  %14 = load ptr, ptr %curr, align 8
  %call9 = call noundef nonnull align 8 dereferenceable(8) ptr @_ZN14obj_hash_entryIN3smt5enodeEE8get_dataEv(ptr noundef nonnull align 8 dereferenceable(8) %14)
  %15 = load ptr, ptr %e.addr, align 8
  %call10 = call noundef zeroext i1 @_ZNK14core_hashtableI14obj_hash_entryIN3smt5enodeEE12obj_ptr_hashIS2_E6ptr_eqIS2_EE6equalsERKPS2_SB_(ptr noundef nonnull align 8 dereferenceable(20) %this1, ptr noundef nonnull align 8 dereferenceable(8) %call9, ptr noundef nonnull align 8 dereferenceable(8) %15)
  br i1 %call10, label %if.then11, label %if.end

if.then11:                                        ; preds = %land.lhs.true
  %16 = load ptr, ptr %curr, align 8
  store ptr %16, ptr %retval, align 8
  br label %return

if.end:                                           ; preds = %land.lhs.true, %if.then
  br label %if.end16

if.else:                                          ; preds = %for.body
  %17 = load ptr, ptr %curr, align 8
  %call12 = call noundef zeroext i1 @_ZNK14obj_hash_entryIN3smt5enodeEE7is_freeEv(ptr noundef nonnull align 8 dereferenceable(8) %17)
  br i1 %call12, label %if.then13, label %if.else14

if.then13:                                        ; preds = %if.else
  store ptr null, ptr %retval, align 8
  br label %return

if.else14:                                        ; preds = %if.else
  br label %if.end15

if.end15:                                         ; preds = %if.else14
  br label %if.end16

if.end16:                                         ; preds = %if.end15, %if.end
  br label %for.inc

for.inc:                                          ; preds = %if.end16
  %18 = load ptr, ptr %curr, align 8
  %incdec.ptr = getelementptr inbounds %class.obj_hash_entry, ptr %18, i32 1
  store ptr %incdec.ptr, ptr %curr, align 8
  br label %for.cond, !llvm.loop !144

for.end:                                          ; preds = %for.cond
  %m_table17 = getelementptr inbounds %class.core_hashtable.30, ptr %this1, i32 0, i32 0
  %19 = load ptr, ptr %m_table17, align 8
  store ptr %19, ptr %curr, align 8
  br label %for.cond18

for.cond18:                                       ; preds = %for.inc36, %for.end
  %20 = load ptr, ptr %curr, align 8
  %21 = load ptr, ptr %begin, align 8
  %cmp19 = icmp ne ptr %20, %21
  br i1 %cmp19, label %for.body20, label %for.end38

for.body20:                                       ; preds = %for.cond18
  %22 = load ptr, ptr %curr, align 8
  %call21 = call noundef zeroext i1 @_ZNK14obj_hash_entryIN3smt5enodeEE7is_usedEv(ptr noundef nonnull align 8 dereferenceable(8) %22)
  br i1 %call21, label %if.then22, label %if.else30

if.then22:                                        ; preds = %for.body20
  %23 = load ptr, ptr %curr, align 8
  %call23 = call noundef i32 @_ZNK14obj_hash_entryIN3smt5enodeEE8get_hashEv(ptr noundef nonnull align 8 dereferenceable(8) %23)
  %24 = load i32, ptr %hash, align 4
  %cmp24 = icmp eq i32 %call23, %24
  br i1 %cmp24, label %land.lhs.true25, label %if.end29

land.lhs.true25:                                  ; preds = %if.then22
  %25 = load ptr, ptr %curr, align 8
  %call26 = call noundef nonnull align 8 dereferenceable(8) ptr @_ZN14obj_hash_entryIN3smt5enodeEE8get_dataEv(ptr noundef nonnull align 8 dereferenceable(8) %25)
  %26 = load ptr, ptr %e.addr, align 8
  %call27 = call noundef zeroext i1 @_ZNK14core_hashtableI14obj_hash_entryIN3smt5enodeEE12obj_ptr_hashIS2_E6ptr_eqIS2_EE6equalsERKPS2_SB_(ptr noundef nonnull align 8 dereferenceable(20) %this1, ptr noundef nonnull align 8 dereferenceable(8) %call26, ptr noundef nonnull align 8 dereferenceable(8) %26)
  br i1 %call27, label %if.then28, label %if.end29

if.then28:                                        ; preds = %land.lhs.true25
  %27 = load ptr, ptr %curr, align 8
  store ptr %27, ptr %retval, align 8
  br label %return

if.end29:                                         ; preds = %land.lhs.true25, %if.then22
  br label %if.end35

if.else30:                                        ; preds = %for.body20
  %28 = load ptr, ptr %curr, align 8
  %call31 = call noundef zeroext i1 @_ZNK14obj_hash_entryIN3smt5enodeEE7is_freeEv(ptr noundef nonnull align 8 dereferenceable(8) %28)
  br i1 %call31, label %if.then32, label %if.else33

if.then32:                                        ; preds = %if.else30
  store ptr null, ptr %retval, align 8
  br label %return

if.else33:                                        ; preds = %if.else30
  br label %if.end34

if.end34:                                         ; preds = %if.else33
  br label %if.end35

if.end35:                                         ; preds = %if.end34, %if.end29
  br label %for.inc36

for.inc36:                                        ; preds = %if.end35
  %29 = load ptr, ptr %curr, align 8
  %incdec.ptr37 = getelementptr inbounds %class.obj_hash_entry, ptr %29, i32 1
  store ptr %incdec.ptr37, ptr %curr, align 8
  br label %for.cond18, !llvm.loop !145

for.end38:                                        ; preds = %for.cond18
  store ptr null, ptr %retval, align 8
  br label %return

return:                                           ; preds = %for.end38, %if.then32, %if.then28, %if.then13, %if.then11
  %30 = load ptr, ptr %retval, align 8
  ret ptr %30
}

; Function Attrs: mustprogress uwtable
define linkonce_odr hidden noundef zeroext i1 @_ZNK14core_hashtableI14obj_hash_entryIN3smt5enodeEE12obj_ptr_hashIS2_E6ptr_eqIS2_EE8containsERKPS2_(ptr noundef nonnull align 8 dereferenceable(20) %this, ptr noundef nonnull align 8 dereferenceable(8) %e) #5 comdat align 2 {
entry:
  %this.addr = alloca ptr, align 8
  %e.addr = alloca ptr, align 8
  store ptr %this, ptr %this.addr, align 8
  store ptr %e, ptr %e.addr, align 8
  %this1 = load ptr, ptr %this.addr, align 8
  %0 = load ptr, ptr %e.addr, align 8
  %call = call noundef ptr @_ZNK14core_hashtableI14obj_hash_entryIN3smt5enodeEE12obj_ptr_hashIS2_E6ptr_eqIS2_EE9find_coreERKPS2_(ptr noundef nonnull align 8 dereferenceable(20) %this1, ptr noundef nonnull align 8 dereferenceable(8) %0)
  %cmp = icmp ne ptr %call, null
  ret i1 %cmp
}

; Function Attrs: mustprogress nounwind uwtable
define linkonce_odr hidden noundef zeroext i1 @_ZNK14core_hashtableI14obj_hash_entryIN3smt5enodeEE12obj_ptr_hashIS2_E6ptr_eqIS2_EE5emptyEv(ptr noundef nonnull align 8 dereferenceable(20) %this) #4 comdat align 2 {
entry:
  %this.addr = alloca ptr, align 8
  store ptr %this, ptr %this.addr, align 8
  %this1 = load ptr, ptr %this.addr, align 8
  %m_size = getelementptr inbounds %class.core_hashtable.30, ptr %this1, i32 0, i32 2
  %0 = load i32, ptr %m_size, align 4
  %cmp = icmp eq i32 %0, 0
  ret i1 %cmp
}

; Function Attrs: mustprogress uwtable
define internal noundef zeroext i1 @_ZNK12_GLOBAL__N_18mam_impl9is_sharedEPN3smt5enodeE(ptr noundef nonnull align 8 dereferenceable(98976) %this, ptr noundef %n) unnamed_addr #5 align 2 {
entry:
  %this.addr = alloca ptr, align 8
  %n.addr = alloca ptr, align 8
  store ptr %this, ptr %this.addr, align 8
  store ptr %n, ptr %n.addr, align 8
  %this1 = load ptr, ptr %this.addr, align 8
  %m_shared_enodes = getelementptr inbounds %"class.(anonymous namespace)::mam_impl", ptr %this1, i32 0, i32 23
  %call = call noundef zeroext i1 @_ZNK14core_hashtableI14obj_hash_entryIN3smt5enodeEE12obj_ptr_hashIS2_E6ptr_eqIS2_EE5emptyEv(ptr noundef nonnull align 8 dereferenceable(20) %m_shared_enodes)
  br i1 %call, label %land.end, label %land.rhs

land.rhs:                                         ; preds = %entry
  %m_shared_enodes2 = getelementptr inbounds %"class.(anonymous namespace)::mam_impl", ptr %this1, i32 0, i32 23
  %call3 = call noundef zeroext i1 @_ZNK14core_hashtableI14obj_hash_entryIN3smt5enodeEE12obj_ptr_hashIS2_E6ptr_eqIS2_EE8containsERKPS2_(ptr noundef nonnull align 8 dereferenceable(20) %m_shared_enodes2, ptr noundef nonnull align 8 dereferenceable(8) %n.addr)
  br label %land.end

land.end:                                         ; preds = %land.rhs, %entry
  %0 = phi i1 [ false, %entry ], [ %call3, %land.rhs ]
  ret i1 %0
}