; Function Attrs: mustprogress nofree norecurse nosync nounwind willreturn memory(read, inaccessiblemem: none) uwtable
define internal noundef zeroext i1 @_ZNK12_GLOBAL__N_18mam_impl9is_sharedEPN3smt5enodeE(ptr nocapture noundef nonnull readonly align 8 dereferenceable(98976) %this, ptr noundef readonly %n) unnamed_addr #6 align 2 {
entry:
  %m_size.i = getelementptr inbounds i8, ptr %this, i64 98948
  %0 = load i32, ptr %m_size.i, align 4
  %cmp.i = icmp eq i32 %0, 0
  br i1 %cmp.i, label %land.end, label %land.rhs

land.rhs:                                         ; preds = %entry
  %m_shared_enodes = getelementptr inbounds i8, ptr %this, i64 98936
  %1 = load ptr, ptr %n, align 8
  %m_hash.i.i.i.i.i.i = getelementptr inbounds i8, ptr %1, i64 12
  %2 = load i32, ptr %m_hash.i.i.i.i.i.i, align 4
  %m_capacity.i.i = getelementptr inbounds i8, ptr %this, i64 98944
  %3 = load i32, ptr %m_capacity.i.i, align 8
  %sub.i.i = add i32 %3, -1
  %and.i.i = and i32 %sub.i.i, %2
  %4 = load ptr, ptr %m_shared_enodes, align 8
  %idx.ext.i.i = zext i32 %and.i.i to i64
  %add.ptr.i.i = getelementptr inbounds %class.obj_hash_entry, ptr %4, i64 %idx.ext.i.i
  %idx.ext4.i.i = zext i32 %3 to i64
  %add.ptr5.i.i = getelementptr inbounds %class.obj_hash_entry, ptr %4, i64 %idx.ext4.i.i
  %cmp.not30.i.i = icmp eq i32 %and.i.i, %3
  br i1 %cmp.not30.i.i, label %for.cond18.preheader.i.i, label %for.body.i.i

for.cond18.preheader.i.i:                         ; preds = %for.inc.i.i, %land.rhs
  %cmp19.not32.i.i = icmp eq i32 %and.i.i, 0
  br i1 %cmp19.not32.i.i, label %land.end, label %for.body20.i.i

for.body.i.i:                                     ; preds = %land.rhs, %for.inc.i.i
  %curr.031.i.i = phi ptr [ %incdec.ptr.i.i, %for.inc.i.i ], [ %add.ptr.i.i, %land.rhs ]
  %5 = load ptr, ptr %curr.031.i.i, align 8
  %magicptr25.i.i = ptrtoint ptr %5 to i64
  switch i64 %magicptr25.i.i, label %if.then.i.i [
    i64 0, label %land.end
    i64 1, label %for.inc.i.i
  ]

if.then.i.i:                                      ; preds = %for.body.i.i
  %6 = load ptr, ptr %5, align 8
  %m_hash.i.i.i.i.i = getelementptr inbounds i8, ptr %6, i64 12
  %7 = load i32, ptr %m_hash.i.i.i.i.i, align 4
  %cmp8.i.i = icmp eq i32 %7, %2
  %cmp.i.i.i.i = icmp eq ptr %5, %n
  %or.cond.i.i = and i1 %cmp.i.i.i.i, %cmp8.i.i
  br i1 %or.cond.i.i, label %land.end, label %for.inc.i.i

for.inc.i.i:                                      ; preds = %if.then.i.i, %for.body.i.i
  %incdec.ptr.i.i = getelementptr inbounds i8, ptr %curr.031.i.i, i64 8
  %cmp.not.i.i = icmp eq ptr %incdec.ptr.i.i, %add.ptr5.i.i
  br i1 %cmp.not.i.i, label %for.cond18.preheader.i.i, label %for.body.i.i, !llvm.loop !31

for.body20.i.i:                                   ; preds = %for.cond18.preheader.i.i, %for.inc36.i.i
  %curr.133.i.i = phi ptr [ %incdec.ptr37.i.i, %for.inc36.i.i ], [ %4, %for.cond18.preheader.i.i ]
  %8 = load ptr, ptr %curr.133.i.i, align 8
  %magicptr27.i.i = ptrtoint ptr %8 to i64
  switch i64 %magicptr27.i.i, label %if.then22.i.i [
    i64 0, label %land.end
    i64 1, label %for.inc36.i.i
  ]

if.then22.i.i:                                    ; preds = %for.body20.i.i
  %9 = load ptr, ptr %8, align 8
  %m_hash.i.i.i22.i.i = getelementptr inbounds i8, ptr %9, i64 12
  %10 = load i32, ptr %m_hash.i.i.i22.i.i, align 4
  %cmp24.i.i = icmp eq i32 %10, %2
  %cmp.i.i23.i.i = icmp eq ptr %8, %n
  %or.cond26.i.i = and i1 %cmp.i.i23.i.i, %cmp24.i.i
  br i1 %or.cond26.i.i, label %land.end, label %for.inc36.i.i

for.inc36.i.i:                                    ; preds = %if.then22.i.i, %for.body20.i.i
  %incdec.ptr37.i.i = getelementptr inbounds i8, ptr %curr.133.i.i, i64 8
  %cmp19.not.i.i = icmp eq ptr %incdec.ptr37.i.i, %add.ptr.i.i
  br i1 %cmp19.not.i.i, label %land.end, label %for.body20.i.i, !llvm.loop !32

land.end:                                         ; preds = %if.then.i.i, %for.body.i.i, %for.inc36.i.i, %if.then22.i.i, %for.body20.i.i, %for.cond18.preheader.i.i, %entry
  %11 = phi i1 [ false, %entry ], [ false, %for.cond18.preheader.i.i ], [ false, %for.inc36.i.i ], [ true, %if.then22.i.i ], [ false, %for.body20.i.i ], [ false, %for.body.i.i ], [ true, %if.then.i.i ]
  ret i1 %11
}